(ioptparse
Values
p0
(dp1
S'selected_nodes'
p2
(lp3
sS'autoflatten'
p4
I01
sS'filetype'
p5
S'kicad_pcb'
p6
sS'ids'
p7
(lp8
sS'crop'
p9
I00
sS'debug'
p10
I00
sS'openkicad'
p11
I00
sS'openfactory'
p12
I00
sS'threshold'
p13
F2.0
sS'path'
p14
S'C:\\DEV\\GitHub\\8Bit-Mixtape-NEO\\boards\\8Bit-Mini-Mixtape\\Kicad'
p15
sS'dpi'
p16
F2000.0
sb.